(dp1
I1
(lp2
F0.00077768745440554682
aF0.0010996899009535906
aS'positive'
p3
asI2
(lp4
F0.00036800640630228824
aF0.027311983503556143
aS'negative'
p5
asI3
(lp6
F0.097353096671344647
aF0.014083571771890785
ag3
asI4
(lp7
F0.0043111538424118094
aF0.034379232451463231
ag5
asI5
(lp8
F0.097353096671344647
aF0.014083571771890785
ag3
asI6
(lp9
F0.0043111538424118094
aF0.034379232451463231
ag5
asI7
(lp10
F0.097353096671344647
aS'vol_ind'
p11
asI8
(lp12
F0.0043111538424118094
ag11
as.