(dp1
I1
(lp2
I0
aI1
aS'positive'
p3
asI2
(lp4
I2
aI3
aS'negative'
p5
asI3
(lp6
I4
aI5
ag3
asI4
(lp7
I6
aI7
ag5
asI5
(lp8
I8
aI9
ag3
asI6
(lp9
I10
aI11
ag5
asI7
(lp10
I12
aI13
ag3
asI8
(lp11
I14
aI15
ag5
asI9
(lp12
I16
aI17
ag3
asI10
(lp13
I18
aI19
ag5
asI11
(lp14
I20
aI21
ag3
asI12
(lp15
I22
aI23
ag5
asI13
(lp16
I24
aI25
ag3
asI14
(lp17
I26
aI27
ag5
asI15
(lp18
I28
aI29
ag3
asI16
(lp19
I30
aI31
ag3
asI17
(lp20
I32
aI33
ag3
asI18
(lp21
I34
aI35
ag3
asI19
(lp22
I36
aI37
ag5
asI20
(lp23
I38
aI39
ag3
asI21
(lp24
I40
aI41
ag5
asI22
(lp25
I42
aI43
ag3
as.