(dp1
I1
(lp2
I0
aI1
aS'positive'
p3
asI2
(lp4
I2
aI3
aS'negative'
p5
asI3
(lp6
I4
aI5
ag3
asI4
(lp7
I6
aI7
ag5
asI5
(lp8
I8
aI9
ag3
asI6
(lp9
I10
aI11
ag5
asI7
(lp10
I12
aI13
ag3
asI8
(lp11
I14
aI15
ag5
asI9
(lp12
I16
aI17
ag3
asI10
(lp13
I18
aI19
ag3
asI11
(lp14
I20
aI21
ag3
asI12
(lp15
I22
aI23
ag3
asI13
(lp16
I24
aI25
ag5
asI14
(lp17
I26
aI27
ag3
as.